target datalayout = "e-m:e-p270:32:32-p271:32:32-p272:64:64-i64:64-i128:128-f80:128-n8:16:32:64-S128"
target triple = "x86_64-pc-linux-gnu"

%"class.std::__cxx11::basic_string" = type { %"struct.std::__cxx11::basic_string<char>::_Alloc_hider", i64, %union.anon }
%"struct.std::__cxx11::basic_string<char>::_Alloc_hider" = type { ptr }
%union.anon = type { i64, [8 x i8] }
%"class.std::filesystem::__cxx11::path" = type { %"class.std::__cxx11::basic_string", %"struct.std::filesystem::__cxx11::path::_List" }
%"struct.std::filesystem::__cxx11::path::_List" = type { %"class.std::unique_ptr" }
%"class.std::unique_ptr" = type { %"struct.std::__uniq_ptr_data" }
%"struct.std::__uniq_ptr_data" = type { %"class.std::__uniq_ptr_impl" }
%"class.std::__uniq_ptr_impl" = type { %"class.std::tuple" }
%"class.std::tuple" = type { %"struct.std::_Tuple_impl" }
%"struct.std::_Tuple_impl" = type { %"struct.std::_Head_base.5" }
%"struct.std::_Head_base.5" = type { ptr }

@.str.8 = private unnamed_addr constant [121 x i8] c"generated/home/dtcxzyw/WorkSpace/Projects/compilers/llvm-opt-benchmark/bench/gromacs/gromacs/src/gromacs/pbcutil/pbc.cpp\00", align 1
@.str.48 = private unnamed_addr constant [33 x i8] c"Unsupported value %d for ecenter\00", align 1

; Function Attrs: mustprogress nounwind uwtable
define linkonce_odr noundef float @_Zli5_reale(x86_fp80 noundef %0) #2 comdat {
  %2 = alloca x86_fp80, align 16
  store x86_fp80 %0, ptr %2, align 16, !tbaa !55
  %3 = load x86_fp80, ptr %2, align 16, !tbaa !55
  %4 = fptrunc x86_fp80 %3 to float
  ret float %4
}

; Function Attrs: inlinehint mustprogress nounwind uwtable
define internal void @_ZL10clear_rvecPf(ptr noundef %0) #4 {
  %2 = alloca ptr, align 8
  store ptr %0, ptr %2, align 8, !tbaa !48
  %3 = call noundef float @_Zli5_reale(x86_fp80 noundef 0xK00000000000000000000)
  %4 = load ptr, ptr %2, align 8, !tbaa !48
  %5 = getelementptr inbounds float, ptr %4, i64 0
  store float %3, ptr %5, align 4, !tbaa !50
  %6 = call noundef float @_Zli5_reale(x86_fp80 noundef 0xK00000000000000000000)
  %7 = load ptr, ptr %2, align 8, !tbaa !48
  %8 = getelementptr inbounds float, ptr %7, i64 1
  store float %6, ptr %8, align 4, !tbaa !50
  %9 = call noundef float @_Zli5_reale(x86_fp80 noundef 0xK00000000000000000000)
  %10 = load ptr, ptr %2, align 8, !tbaa !48
  %11 = getelementptr inbounds float, ptr %10, i64 2
  store float %9, ptr %11, align 4, !tbaa !50
  ret void
}

; Function Attrs: mustprogress uwtable
define void @_Z15calc_box_centeriPA3_KfPf(i32 noundef %0, ptr noundef %1, ptr noundef %2) #3 personality ptr @__gxx_personality_v0 {
  %4 = alloca i32, align 4
  %5 = alloca ptr, align 8
  %6 = alloca ptr, align 8
  %7 = alloca i32, align 4
  %8 = alloca i32, align 4
  %9 = alloca %"class.std::filesystem::__cxx11::path", align 8
  %10 = alloca ptr, align 8
  %11 = alloca i32, align 4
  store i32 %0, ptr %4, align 4, !tbaa !36
  store ptr %1, ptr %5, align 8, !tbaa !48
  store ptr %2, ptr %6, align 8, !tbaa !48
  call void @llvm.lifetime.start.p0(i64 4, ptr %7) #5
  call void @llvm.lifetime.start.p0(i64 4, ptr %8) #5
  %12 = load ptr, ptr %6, align 8, !tbaa !48
  call void @_ZL10clear_rvecPf(ptr noundef %12)
  %13 = load i32, ptr %4, align 4, !tbaa !36
  switch i32 %13, label %69 [
    i32 0, label %14
    i32 1, label %46
    i32 2, label %76
  ]

14:                                               ; preds = %3
  store i32 0, ptr %8, align 4, !tbaa !36
  br label %15

15:                                               ; preds = %42, %14
  %16 = load i32, ptr %8, align 4, !tbaa !36
  %17 = icmp slt i32 %16, 3
  br i1 %17, label %18, label %45

18:                                               ; preds = %15
  store i32 0, ptr %7, align 4, !tbaa !36
  br label %19

19:                                               ; preds = %38, %18
  %20 = load i32, ptr %7, align 4, !tbaa !36
  %21 = icmp slt i32 %20, 3
  br i1 %21, label %22, label %41

22:                                               ; preds = %19
  %23 = call noundef float @_Zli5_reale(x86_fp80 noundef 0xK3FFE8000000000000000)
  %24 = load ptr, ptr %5, align 8, !tbaa !48
  %25 = load i32, ptr %8, align 4, !tbaa !36
  %26 = sext i32 %25 to i64
  %27 = getelementptr inbounds [3 x float], ptr %24, i64 %26
  %28 = load i32, ptr %7, align 4, !tbaa !36
  %29 = sext i32 %28 to i64
  %30 = getelementptr inbounds [3 x float], ptr %27, i64 0, i64 %29
  %31 = load float, ptr %30, align 4, !tbaa !50
  %32 = load ptr, ptr %6, align 8, !tbaa !48
  %33 = load i32, ptr %7, align 4, !tbaa !36
  %34 = sext i32 %33 to i64
  %35 = getelementptr inbounds float, ptr %32, i64 %34
  %36 = load float, ptr %35, align 4, !tbaa !50
  %37 = call float @llvm.fmuladd.f32(float %23, float %31, float %36)
  store float %37, ptr %35, align 4, !tbaa !50
  br label %38

38:                                               ; preds = %22
  %39 = load i32, ptr %7, align 4, !tbaa !36
  %40 = add nsw i32 %39, 1
  store i32 %40, ptr %7, align 4, !tbaa !36
  br label %19, !llvm.loop !183

41:                                               ; preds = %19
  br label %42

42:                                               ; preds = %41
  %43 = load i32, ptr %8, align 4, !tbaa !36
  %44 = add nsw i32 %43, 1
  store i32 %44, ptr %8, align 4, !tbaa !36
  br label %15, !llvm.loop !184

45:                                               ; preds = %15
  br label %76

46:                                               ; preds = %3
  store i32 0, ptr %7, align 4, !tbaa !36
  br label %47

47:                                               ; preds = %65, %46
  %48 = load i32, ptr %7, align 4, !tbaa !36
  %49 = icmp slt i32 %48, 3
  br i1 %49, label %50, label %68

50:                                               ; preds = %47
  %51 = call noundef float @_Zli5_reale(x86_fp80 noundef 0xK3FFE8000000000000000)
  %52 = load ptr, ptr %5, align 8, !tbaa !48
  %53 = load i32, ptr %7, align 4, !tbaa !36
  %54 = sext i32 %53 to i64
  %55 = getelementptr inbounds [3 x float], ptr %52, i64 %54
  %56 = load i32, ptr %7, align 4, !tbaa !36
  %57 = sext i32 %56 to i64
  %58 = getelementptr inbounds [3 x float], ptr %55, i64 0, i64 %57
  %59 = load float, ptr %58, align 4, !tbaa !50
  %60 = fmul float %51, %59
  %61 = load ptr, ptr %6, align 8, !tbaa !48
  %62 = load i32, ptr %7, align 4, !tbaa !36
  %63 = sext i32 %62 to i64
  %64 = getelementptr inbounds float, ptr %61, i64 %63
  store float %60, ptr %64, align 4, !tbaa !50
  br label %65

65:                                               ; preds = %50
  %66 = load i32, ptr %7, align 4, !tbaa !36
  %67 = add nsw i32 %66, 1
  store i32 %67, ptr %7, align 4, !tbaa !36
  br label %47, !llvm.loop !185

68:                                               ; preds = %47
  br label %76

69:                                               ; preds = %3
  call void @llvm.lifetime.start.p0(i64 40, ptr %9) #5
  call void @_ZNSt10filesystem7__cxx114pathC2IA121_cS1_EERKT_NS1_6formatE(ptr noundef nonnull align 8 dereferenceable(40) %9, ptr noundef nonnull align 1 dereferenceable(121) @.str.8, i8 noundef zeroext 2)
  %70 = load i32, ptr %4, align 4, !tbaa !36
  invoke void (i32, ptr, i32, ptr, ...) @_Z9gmx_fataliRKNSt10filesystem7__cxx114pathEiPKcz(i32 noundef 0, ptr noundef nonnull align 8 dereferenceable(40) %9, i32 noundef 1270, ptr noundef @.str.48, i32 noundef %70) #20
          to label %71 unwind label %72

71:                                               ; preds = %69
  unreachable

72:                                               ; preds = %69
  %73 = landingpad { ptr, i32 }
          cleanup
  %74 = extractvalue { ptr, i32 } %73, 0
  store ptr %74, ptr %10, align 8
  %75 = extractvalue { ptr, i32 } %73, 1
  store i32 %75, ptr %11, align 4
  call void @_ZNSt10filesystem7__cxx114pathD2Ev(ptr noundef nonnull align 8 dereferenceable(40) %9) #5
  call void @llvm.lifetime.end.p0(i64 40, ptr %9) #5
  call void @llvm.lifetime.end.p0(i64 4, ptr %8) #5
  call void @llvm.lifetime.end.p0(i64 4, ptr %7) #5
  br label %77

76:                                               ; preds = %3, %68, %45
  call void @llvm.lifetime.end.p0(i64 4, ptr %8) #5
  call void @llvm.lifetime.end.p0(i64 4, ptr %7) #5
  ret void

77:                                               ; preds = %72
  %78 = load ptr, ptr %10, align 8
  %79 = load i32, ptr %11, align 4
  %80 = insertvalue { ptr, i32 } poison, ptr %78, 0
  %81 = insertvalue { ptr, i32 } %80, i32 %79, 1
  resume { ptr, i32 } %81
}