; Function Attrs: mustprogress uwtable
define void @_Z15calc_box_centeriPA3_KfPf(i32 noundef %0, ptr noundef readonly captures(none) %1, ptr noundef captures(none) initializes((0, 12)) %2) local_unnamed_addr #1 personality ptr @__gxx_personality_v0 {
  %4 = alloca %"class.std::filesystem::__cxx11::path", align 8
  store float 0.000000e+00, ptr %2, align 4, !tbaa !21
  %5 = getelementptr inbounds nuw i8, ptr %2, i64 4
  store float 0.000000e+00, ptr %5, align 4, !tbaa !21
  %6 = getelementptr inbounds nuw i8, ptr %2, i64 8
  store float 0.000000e+00, ptr %6, align 4, !tbaa !21
  switch i32 %0, label %18 [
    i32 0, label %.preheader
    i32 1, label %.preheader22
    i32 2, label %.loopexit
  ]

.preheader:                                       ; preds = %3, %13
  %indvars.iv33 = phi i64 [ %indvars.iv.next34, %13 ], [ 0, %3 ]
  br label %7

7:                                                ; preds = %.preheader, %7
  %indvars.iv29 = phi i64 [ 0, %.preheader ], [ %indvars.iv.next30, %7 ]
  %8 = getelementptr inbounds nuw [3 x float], ptr %1, i64 %indvars.iv33, i64 %indvars.iv29
  %9 = load float, ptr %8, align 4, !tbaa !21
  %10 = getelementptr inbounds nuw float, ptr %2, i64 %indvars.iv29
  %11 = load float, ptr %10, align 4, !tbaa !21
  %12 = tail call float @llvm.fmuladd.f32(float %9, float 5.000000e-01, float %11)
  store float %12, ptr %10, align 4, !tbaa !21
  %indvars.iv.next30 = add nuw nsw i64 %indvars.iv29, 1
  %exitcond32.not = icmp eq i64 %indvars.iv.next30, 3
  br i1 %exitcond32.not, label %13, label %7, !llvm.loop !101

13:                                               ; preds = %7
  %indvars.iv.next34 = add nuw nsw i64 %indvars.iv33, 1
  %exitcond36.not = icmp eq i64 %indvars.iv.next34, 3
  br i1 %exitcond36.not, label %.loopexit, label %.preheader, !llvm.loop !102

.preheader22:                                     ; preds = %3, %.preheader22
  %indvars.iv = phi i64 [ %indvars.iv.next, %.preheader22 ], [ 0, %3 ]
  %14 = getelementptr inbounds nuw [3 x float], ptr %1, i64 %indvars.iv, i64 %indvars.iv
  %15 = load float, ptr %14, align 4, !tbaa !21
  %16 = fmul float %15, 5.000000e-01
  %17 = getelementptr inbounds nuw float, ptr %2, i64 %indvars.iv
  store float %16, ptr %17, align 4, !tbaa !21
  %indvars.iv.next = add nuw nsw i64 %indvars.iv, 1
  %exitcond.not = icmp eq i64 %indvars.iv.next, 3
  br i1 %exitcond.not, label %.loopexit, label %.preheader22, !llvm.loop !103

18:                                               ; preds = %3
  call void @llvm.lifetime.start.p0(i64 40, ptr nonnull %4) #20
  call void @_ZNSt10filesystem7__cxx114pathC2IA121_cS1_EERKT_NS1_6formatE(ptr noundef nonnull align 8 dereferenceable(40) %4, ptr noundef nonnull align 1 dereferenceable(121) @.str.8, i8 noundef zeroext 2)
  invoke void (i32, ptr, i32, ptr, ...) @_Z9gmx_fataliRKNSt10filesystem7__cxx114pathEiPKcz(i32 noundef 0, ptr noundef nonnull align 8 dereferenceable(40) %4, i32 noundef 1270, ptr noundef nonnull @.str.48, i32 noundef %0) #28
          to label %19 unwind label %20

19:                                               ; preds = %18
  unreachable

20:                                               ; preds = %18
  %21 = landingpad { ptr, i32 }
          cleanup
  call void @_ZNSt10filesystem7__cxx114pathD2Ev(ptr noundef nonnull align 8 dereferenceable(40) %4) #20
  call void @llvm.lifetime.end.p0(i64 40, ptr nonnull %4) #20
  resume { ptr, i32 } %21

.loopexit:                                        ; preds = %.preheader22, %13, %3
  ret void
}